; Function Attrs: mustprogress uwtable
define hidden void @_ZN6cineon13GenericHeader17SetSourceTimeDateEl(ptr noundef nonnull align 4 dereferenceable(1024) %this, i64 noundef %sec) local_unnamed_addr #8 align 2 personality ptr @__gxx_personality_v0 {
entry:
  %str = alloca [32 x i8], align 16
  %t = alloca i64, align 8
  %localtm = alloca %struct.tm, align 8
  %agg.tmp = alloca %"class.OpenImageIO_v2_6_0::basic_string_view", align 8
  %agg.tmp6 = alloca %"class.OpenImageIO_v2_6_0::basic_string_view", align 8
  store i64 %sec, ptr %t, align 8
  call void @_ZN18OpenImageIO_v2_6_07Sysutil14get_local_timeEPKlP2tm(ptr noundef nonnull %t, ptr noundef nonnull %localtm)
  %call = call i64 @strftime(ptr noundef nonnull %str, i64 noundef 32, ptr noundef nonnull @.str.2, ptr noundef nonnull %localtm) #23
  %sourceDate = getelementptr inbounds i8, ptr %this, i64 820
  store ptr %str, ptr %agg.tmp, align 8
  %call.i.i.i = call noundef i64 @strlen(ptr noundef nonnull dereferenceable(1) %str) #23
  %m_len.i = getelementptr inbounds i8, ptr %agg.tmp, i64 8
  store i64 %call.i.i.i, ptr %m_len.i, align 8
  %call4 = call noundef ptr @_ZN18OpenImageIO_v2_6_07Strutil11safe_strcpyEPcNS_17basic_string_viewIcSt11char_traitsIcEEEm(ptr noundef nonnull %sourceDate, ptr noundef nonnull %agg.tmp, i64 noundef 11) #23
  %sourceTime = getelementptr inbounds i8, ptr %this, i64 832
  %add.ptr = getelementptr inbounds i8, ptr %str, i64 11
  store ptr %add.ptr, ptr %agg.tmp6, align 8
  %call.i.i.i1 = call noundef i64 @strlen(ptr noundef nonnull dereferenceable(1) %add.ptr) #23
  %m_len.i2 = getelementptr inbounds i8, ptr %agg.tmp6, i64 8
  store i64 %call.i.i.i1, ptr %m_len.i2, align 8
  %call8 = call noundef ptr @_ZN18OpenImageIO_v2_6_07Strutil11safe_strcpyEPcNS_17basic_string_viewIcSt11char_traitsIcEEEm(ptr noundef nonnull %sourceTime, ptr noundef nonnull %agg.tmp6, i64 noundef 12) #23
  ret void
}